; Function Attrs: nofree norecurse nosync nounwind memory(readwrite, inaccessiblemem: none) uwtable
define void @SUNDlsMat_bandCopy(ptr noundef readonly captures(none) %0, ptr noundef readonly captures(none) %1, i64 noundef %2, i64 noundef %3, i64 noundef %4, i64 noundef %5, i64 noundef %6) local_unnamed_addr #0 {
  %8 = add i64 %6, %5
  %9 = icmp sgt i64 %2, 0
  br i1 %9, label %.lr.ph24, label %._crit_edge25

.lr.ph24:                                         ; preds = %7
  %10 = sub i64 0, %5
  %.not20 = icmp slt i64 %8, 0
  br i1 %.not20, label %._crit_edge25, label %.lr.ph

.lr.ph:                                           ; preds = %.lr.ph24, %._crit_edge
  %.01922 = phi i64 [ %24, %._crit_edge ], [ 0, %.lr.ph24 ]
  %11 = getelementptr inbounds nuw ptr, ptr %0, i64 %.01922
  %12 = load ptr, ptr %11, align 8, !tbaa !16
  %13 = getelementptr inbounds double, ptr %12, i64 %3
  %14 = getelementptr inbounds double, ptr %13, i64 %10
  %15 = getelementptr inbounds nuw ptr, ptr %1, i64 %.01922
  %16 = load ptr, ptr %15, align 8, !tbaa !16
  %17 = getelementptr inbounds double, ptr %16, i64 %4
  %18 = getelementptr inbounds double, ptr %17, i64 %10
  br label %19

19:                                               ; preds = %.lr.ph, %19
  %.021 = phi i64 [ 0, %.lr.ph ], [ %23, %19 ]
  %20 = getelementptr inbounds nuw double, ptr %14, i64 %.021
  %21 = load double, ptr %20, align 8, !tbaa !17
  %22 = getelementptr inbounds nuw double, ptr %18, i64 %.021
  store double %21, ptr %22, align 8, !tbaa !17
  %23 = add nuw i64 %.021, 1
  %exitcond.not = icmp eq i64 %.021, %8
  br i1 %exitcond.not, label %._crit_edge, label %19

._crit_edge:                                      ; preds = %19
  %24 = add nuw nsw i64 %.01922, 1
  %exitcond27.not = icmp eq i64 %24, %2
  br i1 %exitcond27.not, label %._crit_edge25, label %.lr.ph

._crit_edge25:                                    ; preds = %._crit_edge, %.lr.ph24, %7
  ret void
}